Microchip MPLAB XC8 Compiler V2.41

Linker command line:

-W-3 \
  --edf=C:\Program Files\Microchip\xc8\v2.41\pic\dat\20230208172133_en.msgs \
  -cn -h+dist/default/production\RTOS_TEST03.X.production.sym \
  --cmf=dist/default/production\RTOS_TEST03.X.production.cmf -z -Q18F47J53 \
  -oC:\Users\nosak\AppData\Local\Temp\xcAs7n0.\driver_tmp_3.o \
  --defsym=__MPLAB_BUILD=1 --fixupoverflow=error \
  -Mdist/default/production/RTOS_TEST03.X.production.map \
  --md=C:\Users\nosak\AppData\Local\Temp\xcAs7n0.\driver_tmp_0.dat -E1 \
  -ver=XC8 Compiler --acfsm=1493 -ACODE=00h-01FFF7h -ACONST=00h-01FFF7h \
  -ASMALLCONST=01000h-010FFhx495,01FF00h-01FFF7h \
  -AMEDIUMCONST=01000h-0FFFFh,011000h-01FFF7h -ACOMRAM=01h-05Fh \
  -AABS1=00h-0EAFh -ABIGRAM=01h-0EAFh \
  -ARAM=060h-0FFh,0100h-01FFhx13,0E00h-0EAFh -ABANK0=060h-0FFh \
  -ABANK1=0100h-01FFh -ABANK2=0200h-02FFh -ABANK3=0300h-03FFh \
  -ABANK4=0400h-04FFh -ABANK5=0500h-05FFh -ABANK6=0600h-06FFh \
  -ABANK7=0700h-07FFh -ABANK8=0800h-08FFh -ABANK9=0900h-09FFh \
  -ABANK10=0A00h-0AFFh -ABANK11=0B00h-0BFFh -ABANK12=0C00h-0CFFh \
  -ABANK13=0D00h-0DFFh -ABANK14=0E00h-0EAFh \
  -ASFR=0EB0h-0EFFh,0F00h-0F5Fh,0F60h-0FFFh -ABIGSFR=0EB0h-0FFFh \
  -ACONFIG=01FFF8h-01FFFFh \
  -preset_vec=00h,intcode=08h,intcodelo,powerup,init -pramtop=01000h \
  -psmallconst=SMALLCONST -pmediumconst=MEDIUMCONST -pconst=CONST \
  -AFARRAM=00h-00h -pjflash_buffer=01F800h \
  -prdata=COMRAM,nvrram=COMRAM,nvbit=COMRAM,rbss=COMRAM,rbit=COMRAM \
  -pfarbss=FARRAM,fardata=FARRAM,nvFARRAM=FARRAM \
  -pintsave_regs=BIGRAM,bigbss=BIGRAM,bigdata=BIGRAM -pbss=RAM \
  -pidata=CODE,irdata=CODE,ibigdata=CODE,ifardata=CODE -prparam=COMRAM \
  C:\Users\nosak\AppData\Local\Temp\xcAs7n0.\driver_tmp_9.o \
  dist/default/production\RTOS_TEST03.X.production.o 

Object code version is 3.11

Machine type is 18F47J53



                Name                               Link     Load   Length Selector   Space Scale
C:\Users\nosak\AppData\Local\Temp\xcAs7n0.\driver_tmp_9.o
                config                            1FFF8    1FFF8        8        0       4
                init                                472      472        4        4       0
                reset_vec                             0        0        4        0       0
dist/default/production\RTOS_TEST03.X.production.o
                intcode                               8        8      46A        4       0
                config                            1FFF8    1FFF8        8        0       4
                temp                                 5F       5F        1        1       1
                mediumconst                        F86C     F86C      794     7C36       0
                text72                            13122    13122      42A     8000       0
                text71                            185CE    185CE       38     8000       0
                text70                            12836    12836      4C0     8000       0
                text69                            18512    18512       46     8000       0
                text68                            17BB8    17BB8      106     8000       0
                text67                            169CC    169CC      1B4     8000       0
                text66                            17E64    17E64       C4     8000       0
                text65                            1865A    1865A       26     8000       0
                text64                            17282    17282      148     8000       0
                text63                            16816    16816      1B6     8000       0
                text62                            186A0    186A0       1C     8000       0
                text61                            1834A    1834A       52     8000       0
                text60                            140CC    140CC      366     8000       0
                text59                            1763E    1763E      12A     8000       0
                text58                            186EC    186EC       16     8000       0
                text57                            18150    18150       82     8000       0
                text56                            14D46    14D46      2D0     8000       0
                text55                            152D6    152D6      2B6     8000       0
                text54                            18480    18480       4A     8000       0
                text53                            111C8    111C8     11AC     8000       0
                text51                            186D4    186D4       18     8000       0
                text50                            18558    18558       3C     8000       0
                text49                            18606    18606       2C     8000       0
                text48                            1829A    1829A       5C     8000       0
                text47                            12CF6    12CF6      42C     8000       0
                text46                            18594    18594       3A     8000       0
                text45                            12374    12374      4C2     8000       0
                text44                            184CA    184CA       48     8000       0
                text43                            17AB0    17AB0      108     8000       0
                text42                            1665E    1665E      1B8     8000       0
                text41                            17D9E    17D9E       C6     8000       0
                text40                            18632    18632       28     8000       0
                text39                            16FDE    16FDE      156     8000       0
                text38                            1649E    1649E      1C0     8000       0
                text37                            18680    18680       20     8000       0
                text36                            182F6    182F6       54     8000       0
                text35                            13D64    13D64      368     8000       0
                text34                            1750E    1750E      130     8000       0
                text33                            186BC    186BC       18     8000       0
                text32                            17FC0    17FC0       88     8000       0
                text31                            14A70    14A70      2D6     8000       0
                text30                            13974    13974      3F0     8000       0
                text29                            181D2    181D2       6C     8000       0
                text28                            17F28    17F28       98     8000       0
                text27                            1823E    1823E       5C     8000       0
                text26                            180CE    180CE       82     8000       0
                text25                            18048    18048       86     8000       0
                text24                            1558C    1558C      280     8000       0
                text23                            17CBE    17CBE       E0     8000       0
                text22                            162D8    162D8      1C6     8000       0
                text21                            18716    18716        6     8000       0
                text20                            15016    15016      2C0     8000       0
                text19                            17768    17768      11E     8000       0
                text18                            18436    18436       4A     8000       0
                text17                            10000    10000     11C8     8000       0
                text16                            1354C    1354C      428     8000       0
                text15                            15CEA    15CEA      242     8000       0
                text14                            16B80    16B80      186     8000       0
                text13                            183EA    183EA       4C     8000       0
                text12                            15F2C    15F2C      1E2     8000       0
                text11                            1610E    1610E      1CA     8000       0
                text10                            173CA    173CA      144     8000       0
                text9                             17886    17886      11A     8000       0
                text8                             15A84    15A84      266     8000       0
                text7                             1580C    1580C      278     8000       0
                text6                             16D06    16D06      178     8000       0
                text5                             14778    14778      2F8     8000       0
                text4                             18702    18702       14     8000       0
                text3                             14432    14432      346     8000       0
                text2                             16E7E    16E7E      160     8000       0
                text1                             179A0    179A0      110     8000       0
                text0                             17134    17134      14E     8000       0
                cstackCOMRAM                          1        1       56        1       1
                cstackBANK0                          60       60       3B       60       1
                cstackBANK1                         100      100       BB      100       1
                cstackBANK2                         28A      28A       28      200       1
                bssBIGRAM                           2B2      2B2      800      2B2       1
                bssBANK2                            200      200       8A      200       1
                bssBANK1                            1BB      1BB       45      100       1
                bssBANK0                             9B       9B       39       60       1
                bssCOMRAM                            57       57        8        1       1
                cinit                             1839C    1839C       4E     8000       0

TOTAL           Name                               Link     Load   Length     Space
        CLASS   CODE           
                intcode                               8        8      46A         0
                init                                472      472        4         0
                reset_vec                             0        0        4         0
                text72                            13122    13122      42A         0
                text71                            185CE    185CE       38         0
                text70                            12836    12836      4C0         0
                text69                            18512    18512       46         0
                text68                            17BB8    17BB8      106         0
                text67                            169CC    169CC      1B4         0
                text66                            17E64    17E64       C4         0
                text65                            1865A    1865A       26         0
                text64                            17282    17282      148         0
                text63                            16816    16816      1B6         0
                text62                            186A0    186A0       1C         0
                text61                            1834A    1834A       52         0
                text60                            140CC    140CC      366         0
                text59                            1763E    1763E      12A         0
                text58                            186EC    186EC       16         0
                text57                            18150    18150       82         0
                text56                            14D46    14D46      2D0         0
                text55                            152D6    152D6      2B6         0
                text54                            18480    18480       4A         0
                text53                            111C8    111C8     11AC         0
                text51                            186D4    186D4       18         0
                text50                            18558    18558       3C         0
                text49                            18606    18606       2C         0
                text48                            1829A    1829A       5C         0
                text47                            12CF6    12CF6      42C         0
                text46                            18594    18594       3A         0
                text45                            12374    12374      4C2         0
                text44                            184CA    184CA       48         0
                text43                            17AB0    17AB0      108         0
                text42                            1665E    1665E      1B8         0
                text41                            17D9E    17D9E       C6         0
                text40                            18632    18632       28         0
                text39                            16FDE    16FDE      156         0
                text38                            1649E    1649E      1C0         0
                text37                            18680    18680       20         0
                text36                            182F6    182F6       54         0
                text35                            13D64    13D64      368         0
                text34                            1750E    1750E      130         0
                text33                            186BC    186BC       18         0
                text32                            17FC0    17FC0       88         0
                text31                            14A70    14A70      2D6         0
                text30                            13974    13974      3F0         0
                text29                            181D2    181D2       6C         0
                text28                            17F28    17F28       98         0
                text27                            1823E    1823E       5C         0
                text26                            180CE    180CE       82         0
                text25                            18048    18048       86         0
                text24                            1558C    1558C      280         0
                text23                            17CBE    17CBE       E0         0
                text22                            162D8    162D8      1C6         0
                text21                            18716    18716        6         0
                text20                            15016    15016      2C0         0
                text19                            17768    17768      11E         0
                text18                            18436    18436       4A         0
                text17                            10000    10000     11C8         0
                text16                            1354C    1354C      428         0
                text15                            15CEA    15CEA      242         0
                text14                            16B80    16B80      186         0
                text13                            183EA    183EA       4C         0
                text12                            15F2C    15F2C      1E2         0
                text11                            1610E    1610E      1CA         0
                text10                            173CA    173CA      144         0
                text9                             17886    17886      11A         0
                text8                             15A84    15A84      266         0
                text7                             1580C    1580C      278         0
                text6                             16D06    16D06      178         0
                text5                             14778    14778      2F8         0
                text4                             18702    18702       14         0
                text3                             14432    14432      346         0
                text2                             16E7E    16E7E      160         0
                text1                             179A0    179A0      110         0
                text0                             17134    17134      14E         0
                cinit                             1839C    1839C       4E         0

        CLASS   CONST          

        CLASS   SMALLCONST     

        CLASS   MEDIUMCONST    
                mediumconst                        F86C     F86C      794         0

        CLASS   COMRAM         
                temp                                 5F       5F        1         1
                cstackCOMRAM                          1        1       56         1
                bssCOMRAM                            57       57        8         1

        CLASS   ABS1           

        CLASS   BIGRAM         
                bssBIGRAM                           2B2      2B2      800         1

        CLASS   RAM            

        CLASS   BANK0          
                cstackBANK0                          60       60       3B         1
                bssBANK0                             9B       9B       39         1

        CLASS   BANK1          
                cstackBANK1                         100      100       BB         1
                bssBANK1                            1BB      1BB       45         1

        CLASS   BANK2          
                cstackBANK2                         28A      28A       28         1
                bssBANK2                            200      200       8A         1

        CLASS   BANK3          

        CLASS   BANK4          

        CLASS   BANK5          

        CLASS   BANK6          

        CLASS   BANK7          

        CLASS   BANK8          

        CLASS   BANK9          

        CLASS   BANK10         

        CLASS   BANK11         

        CLASS   BANK12         

        CLASS   BANK13         

        CLASS   BANK14         

        CLASS   SFR            

        CLASS   BIGSFR         

        CLASS   CONFIG         
                config                            1FFF8    1FFF8        8         4

        CLASS   FARRAM         

        CLASS   HEAP           

        CLASS   STACK          

        CLASS   IDLOC          



SEGMENTS        Name                           Load    Length   Top    Selector   Space  Class

                reset_vec                      000000  000004  000004         0       0  CODE    
                cstackCOMRAM                   000001  00005F  000060         1       1  COMRAM  
                intcode                        000008  00046E  000476         4       0  CODE    
                cstackBANK0                    000060  000074  0000D4        60       1  BANK0   
                cstackBANK1                    000100  000100  000200       100       1  BANK1   
                bssBANK2                       000200  0000B2  0002B2       200       1  BANK2   
                bssBIGRAM                      0002B2  000800  000AB2       2B2       1  BIGRAM  
                mediumconst                    00F86C  000794  010000      7C36       0  MEDIUMCO
                text17                         010000  00871C  01871C      8000       0  CODE    


UNUSED ADDRESS RANGES

        Name                Unused          Largest block    Delta
        BANK0            000D4-000FF              2C
        BANK10           00AB2-00AFF              4E
        BANK11           00B00-00BFF             100
        BANK12           00C00-00CFF             100
        BANK13           00D00-00DFF             100
        BANK14           00E00-00EAF              B0
        BIGRAM           000D4-000FF              2C
                         00AB2-00EAF             3FE
        BIGSFR           00EB0-00FFF             150
        CODE             00004-00007               4
                         00476-0F86B            F3F6
                         1871C-1FFF7            78DC
        CONST            00004-00007               4
                         00476-0F86B            F3F6
                         1871C-1FFF7            78DC
        MEDIUMCONST      01000-0F86B            E86C
                         1871C-1FFF7            78DC
        RAM              000D4-000FF              2C
                         00AB2-00EAF             100
        SFR              00EB0-00FFF              60
        SMALLCONST       01000-0F86B             100
                         1871C-1FFF7             100

                                  Symbol Table

?_Xprintf                                      cstackBANK1   0012C
?___awdiv                                      cstackBANK1   00100
?___fladd                                      cstackBANK1   00100
?___flmul                                      cstackBANK1   00100
?___flneg                                      cstackBANK1   00100
?___flsub                                      cstackBANK1   00110
?___fltol                                      cstackBANK1   00100
?___lmul                                       cstackBANK1   00100
?___wmul                                       cstackBANK1   00100
?___xxtofl                                     cstackBANK1   00100
?_my_putchar                                   cstackBANK1   00100
?_my_putfloat                                  cstackBANK1   00119
?_my_putint                                    cstackBANK1   00108
?_my_puts                                      cstackBANK1   00103
?_my_putshex                                   cstackBANK1   00100
?_my_putshex32                                 cstackBANK1   00100
?_prvTaskCheckFreeStackSpace                   cstackBANK1   00100
?_pvPortMalloc                                 cstackBANK1   0018F
?_pxPortInitialiseStack                        cstackBANK1   00100
?i2_Xprintf                                    cstackCOMRAM  0002D
?i2___awdiv                                    cstackCOMRAM  00001
?i2___fladd                                    cstackCOMRAM  00001
?i2___flmul                                    cstackCOMRAM  00001
?i2___flneg                                    cstackCOMRAM  00001
?i2___flsub                                    cstackCOMRAM  00011
?i2___fltol                                    cstackCOMRAM  00001
?i2___wmul                                     cstackCOMRAM  00001
?i2___xxtofl                                   cstackCOMRAM  00001
?i2_my_putchar                                 cstackCOMRAM  00001
?i2_my_putfloat                                cstackCOMRAM  0001A
?i2_my_putint                                  cstackCOMRAM  00009
?i2_my_puts                                    cstackCOMRAM  00004
?i2_my_putshex                                 cstackCOMRAM  00001
?i2_my_putshex32                               cstackCOMRAM  00001
Set_UasrtBauRaite@dt                           cstackBANK1   00100
Wait@i                                         cstackBANK1   00103
Wait@num                                       cstackBANK1   00100
Xprintf@Malloc_buf                             cstackBANK1   00147
Xprintf@ap                                     cstackBANK1   00149
Xprintf@buffer                                 cstackBANK1   0014B
Xprintf@ch                                     cstackBANK1   00146
Xprintf@charvalue                              cstackBANK1   00142
Xprintf@floatvalue                             cstackBANK1   0013C
Xprintf@intvalue                               cstackBANK1   00140
Xprintf@string                                 cstackBANK1   0012C
Xprintf@uint32value                            cstackBANK1   00138
Xprintf@uintvalue                              cstackBANK1   00144
_ANCON0                                        (abs)         00F48
_ANCON1                                        (abs)         00F49
_BAUDCON2                                      (abs)         00F7C
_BAUDCON2bits                                  (abs)         00F7C
_CCP1CON                                       (abs)         00FBA
_CCPR1H                                        (abs)         00FBC
_CCPR1L                                        (abs)         00FBB
_CCPTMRS0                                      (abs)         00F52
_ConvC                                         mediumconst   0F86D
_EECON2                                        (abs)         00FA7
_FSEN                                          (abs)         079CA
_FSR0L                                         (abs)         00FE9
_INDF1                                         (abs)         00FE7
_INTCON                                        (abs)         00FF2
_INTCONbits                                    (abs)         00FF2
_IPR1bits                                      (abs)         00F9F
_IPR3bits                                      (abs)         00FA5
_LATAbits                                      (abs)         00F89
_OSCCON                                        (abs)         00FD3
_PIE1bits                                      (abs)         00F9D
_PIE3bits                                      (abs)         00FA3
_PIR1bits                                      (abs)         00F9E
_PIR3bits                                      (abs)         00FA4
_PLLEN                                         (abs)         07CDE
_PORTA                                         (abs)         00F80
_PORTB                                         (abs)         00F81
_PORTC                                         (abs)         00F82
_PORTD                                         (abs)         00F83
_PORTDbits                                     (abs)         00F83
_POSTINC1                                      (abs)         00FE6
_PPSCONbits                                    (abs)         00EBF
_RBPU                                          (abs)         07F8F
_RCONbits                                      (abs)         00FD0
_RCREG                                         (abs)         00FAF
_RCREG2                                        (abs)         00FAA
_RCSTA                                         (abs)         00FAC
_RCSTA2                                        (abs)         00F9C
_RCSTA2bits                                    (abs)         00F9C
_RCSTAbits                                     (abs)         00FAC
_RPINR16                                       (abs)         00EF7
_RPOR23                                        (abs)         00ED7
_RTCdt                                         bssBANK0      0009B
_SPBRG                                         (abs)         00FB0
_SPBRG2                                        (abs)         00FAB
_SPBRGH2                                       (abs)         00F7D
_STKPTR                                        (abs)         00FFC
_Set_UasrtBauRaite                             text49        18606
_T0CON                                         (abs)         00FD5
_T0CONbits                                     (abs)         00FD5
_T1CON                                         (abs)         00FCD
_T1CONbits                                     (abs)         00FCD
_T3CON                                         (abs)         00F79
_TMR0H                                         (abs)         00FD7
_TMR0L                                         (abs)         00FD6
_TMR1H                                         (abs)         00FCF
_TMR1L                                         (abs)         00FCE
_TMR3H                                         (abs)         00F7B
_TMR3L                                         (abs)         00F7A
_TRISA                                         (abs)         00F92
_TRISAbits                                     (abs)         00F92
_TRISB                                         (abs)         00F93
_TRISBbits                                     (abs)         00F93
_TRISC                                         (abs)         00F94
_TRISD                                         (abs)         00F95
_TRISDbits                                     (abs)         00F95
_TXREG                                         (abs)         00FAE
_TXREG2                                        (abs)         00FA9
_TXSTA                                         (abs)         00FAD
_TXSTA2                                        (abs)         00FA8
_TXSTA2bits                                    (abs)         00FA8
_Timer0_init                                   text51        186D4
_Wait                                          text50        18558
_Xprintf                                       text31        14A70
__HRAM                                         (abs)         00000
__H__absolute__                                __absolute__  00000
__Habs1                                        abs1          00000
__Hbank0                                       bank0         00000
__Hbank1                                       bank1         00000
__Hbank10                                      bank10        00000
__Hbank11                                      bank11        00000
__Hbank12                                      bank12        00000
__Hbank13                                      bank13        00000
__Hbank14                                      bank14        00000
__Hbank2                                       bank2         00000
__Hbank3                                       bank3         00000
__Hbank4                                       bank4         00000
__Hbank5                                       bank5         00000
__Hbank6                                       bank6         00000
__Hbank7                                       bank7         00000
__Hbank8                                       bank8         00000
__Hbank9                                       bank9         00000
__Hbigbss                                      bigbss        00000
__Hbigdata                                     bigdata       00000
__Hbigram                                      bigram        00000
__Hbigsfr                                      bigsfr        00000
__Hbss                                         bss           00000
__HbssBANK0                                    bssBANK0      00000
__HbssBANK1                                    bssBANK1      00000
__HbssBANK2                                    bssBANK2      00000
__HbssBIGRAM                                   bssBIGRAM     00000
__HbssCOMRAM                                   bssCOMRAM     00000
__Hcinit                                       cinit         00000
__Hclrtext                                     clrtext       00000
__Hcomram                                      comram        00000
__Hconfig                                      config        20000
__Hconst                                       const         00000
__HcstackBANK0                                 cstackBANK0   00000
__HcstackBANK1                                 cstackBANK1   00000
__HcstackBANK2                                 cstackBANK2   00000
__HcstackCOMRAM                                cstackCOMRAM  00000
__Hdata                                        data          00000
__Hfarbss                                      farbss        00000
__Hfardata                                     fardata       00000
__Hheap                                        heap          00000
__Hibigdata                                    ibigdata      00000
__Hidata                                       idata         00000
__Hidloc                                       idloc         00000
__Hifardata                                    ifardata      00000
__Hinit                                        init          00476
__Hintcode                                     intcode       00472
__Hintcode_body                                intcode_body  00000
__Hintcodelo                                   intcodelo     00472
__Hintentry                                    intentry      00000
__Hintret                                      intret        00000
__Hintsave_regs                                intsave_regs  00000
__Hirdata                                      irdata        00000
__Hjflash_buffer                               jflash_buffer 1F800
__Hmediumconst                                 mediumconst   10000
__HnvFARRAM                                    nvFARRAM      00000
__Hnvbit                                       nvbit         00000
__Hnvrram                                      nvrram        00000
__Hparam                                       rparam        00000
__Hpowerup                                     powerup       00472
__Hram                                         ram           00000
__Hramtop                                      ramtop        01000
__Hrbit                                        rbit          00000
__Hrbss                                        rbss          00000
__Hrdata                                       rdata         00000
__Hreset_vec                                   reset_vec     00004
__Hrparam                                      rparam        00000
__Hsfr                                         sfr           00000
__Hsmallconst                                  smallconst    00000
__Hspace_0                                     (abs)         1F800
__Hspace_1                                     (abs)         00AB2
__Hspace_2                                     (abs)         00000
__Hspace_4                                     (abs)         3FFF8
__Hstack                                       stack         00000
__Hstruct                                      struct        00000
__Htemp                                        temp          00060
__Htext                                        text          00000
__Htext0                                       text0         00000
__Htext1                                       text1         00000
__Htext10                                      text10        00000
__Htext11                                      text11        00000
__Htext12                                      text12        00000
__Htext13                                      text13        00000
__Htext14                                      text14        00000
__Htext15                                      text15        00000
__Htext16                                      text16        00000
__Htext17                                      text17        00000
__Htext18                                      text18        00000
__Htext19                                      text19        00000
__Htext2                                       text2         00000
__Htext20                                      text20        00000
__Htext21                                      text21        00000
__Htext22                                      text22        00000
__Htext23                                      text23        00000
__Htext24                                      text24        00000
__Htext25                                      text25        00000
__Htext26                                      text26        00000
__Htext27                                      text27        00000
__Htext28                                      text28        00000
__Htext29                                      text29        00000
__Htext3                                       text3         00000
__Htext30                                      text30        00000
__Htext31                                      text31        00000
__Htext32                                      text32        00000
__Htext33                                      text33        00000
__Htext34                                      text34        00000
__Htext35                                      text35        00000
__Htext36                                      text36        00000
__Htext37                                      text37        00000
__Htext38                                      text38        00000
__Htext39                                      text39        00000
__Htext4                                       text4         00000
__Htext40                                      text40        00000
__Htext41                                      text41        00000
__Htext42                                      text42        00000
__Htext43                                      text43        00000
__Htext44                                      text44        00000
__Htext45                                      text45        00000
__Htext46                                      text46        00000
__Htext47                                      text47        00000
__Htext48                                      text48        00000
__Htext49                                      text49        00000
__Htext5                                       text5         00000
__Htext50                                      text50        00000
__Htext51                                      text51        00000
__Htext53                                      text53        00000
__Htext54                                      text54        00000
__Htext55                                      text55        00000
__Htext56                                      text56        00000
__Htext57                                      text57        00000
__Htext58                                      text58        00000
__Htext59                                      text59        00000
__Htext6                                       text6         00000
__Htext60                                      text60        00000
__Htext61                                      text61        00000
__Htext62                                      text62        00000
__Htext63                                      text63        00000
__Htext64                                      text64        00000
__Htext65                                      text65        00000
__Htext66                                      text66        00000
__Htext67                                      text67        00000
__Htext68                                      text68        00000
__Htext69                                      text69        00000
__Htext7                                       text7         00000
__Htext70                                      text70        00000
__Htext71                                      text71        00000
__Htext72                                      text72        00000
__Htext8                                       text8         00000
__Htext9                                       text9         00000
__LRAM                                         (abs)         00001
__L__absolute__                                __absolute__  00000
__Labs1                                        abs1          00000
__Lbank0                                       bank0         00000
__Lbank1                                       bank1         00000
__Lbank10                                      bank10        00000
__Lbank11                                      bank11        00000
__Lbank12                                      bank12        00000
__Lbank13                                      bank13        00000
__Lbank14                                      bank14        00000
__Lbank2                                       bank2         00000
__Lbank3                                       bank3         00000
__Lbank4                                       bank4         00000
__Lbank5                                       bank5         00000
__Lbank6                                       bank6         00000
__Lbank7                                       bank7         00000
__Lbank8                                       bank8         00000
__Lbank9                                       bank9         00000
__Lbigbss                                      bigbss        00000
__Lbigdata                                     bigdata       00000
__Lbigram                                      bigram        00000
__Lbigsfr                                      bigsfr        00000
__Lbss                                         bss           00000
__LbssBANK0                                    bssBANK0      00000
__LbssBANK1                                    bssBANK1      00000
__LbssBANK2                                    bssBANK2      00000
__LbssBIGRAM                                   bssBIGRAM     00000
__LbssCOMRAM                                   bssCOMRAM     00000
__Lcinit                                       cinit         00000
__Lclrtext                                     clrtext       00000
__Lcomram                                      comram        00000
__Lconfig                                      config        00000
__Lconst                                       const         00000
__LcstackBANK0                                 cstackBANK0   00000
__LcstackBANK1                                 cstackBANK1   00000
__LcstackBANK2                                 cstackBANK2   00000
__LcstackCOMRAM                                cstackCOMRAM  00000
__Ldata                                        data          00000
__Lfarbss                                      farbss        00000
__Lfardata                                     fardata       00000
__Lheap                                        heap          00000
__Libigdata                                    ibigdata      00000
__Lidata                                       idata         00000
__Lidloc                                       idloc         00000
__Lifardata                                    ifardata      00000
__Linit                                        init          00472
__Lintcode                                     intcode       00008
__Lintcode_body                                intcode_body  00000
__Lintcodelo                                   intcodelo     00472
__Lintentry                                    intentry      00000
__Lintret                                      intret        00000
__Lintsave_regs                                intsave_regs  00000
__Lirdata                                      irdata        00000
__Ljflash_buffer                               jflash_buffer 1F800
__Lmediumconst                                 mediumconst   0F86C
__LnvFARRAM                                    nvFARRAM      00000
__Lnvbit                                       nvbit         00000
__Lnvrram                                      nvrram        00000
__Lparam                                       rparam        00000
__Lpowerup                                     powerup       00472
__Lram                                         ram           00000
__Lramtop                                      ramtop        01000
__Lrbit                                        rbit          00000
__Lrbss                                        rbss          00000
__Lrdata                                       rdata         00000
__Lreset_vec                                   reset_vec     00000
__Lrparam                                      rparam        00000
__Lsfr                                         sfr           00000
__Lsmallconst                                  smallconst    00000
__Lspace_0                                     (abs)         00000
__Lspace_1                                     (abs)         00000
__Lspace_2                                     (abs)         00000
__Lspace_4                                     (abs)         00000
__Lstack                                       stack         00000
__Lstruct                                      struct        00000
__Ltemp                                        temp          0005F
__Ltext                                        text          00000
__Ltext0                                       text0         00000
__Ltext1                                       text1         00000
__Ltext10                                      text10        00000
__Ltext11                                      text11        00000
__Ltext12                                      text12        00000
__Ltext13                                      text13        00000
__Ltext14                                      text14        00000
__Ltext15                                      text15        00000
__Ltext16                                      text16        00000
__Ltext17                                      text17        00000
__Ltext18                                      text18        00000
__Ltext19                                      text19        00000
__Ltext2                                       text2         00000
__Ltext20                                      text20        00000
__Ltext21                                      text21        00000
__Ltext22                                      text22        00000
__Ltext23                                      text23        00000
__Ltext24                                      text24        00000
__Ltext25                                      text25        00000
__Ltext26                                      text26        00000
__Ltext27                                      text27        00000
__Ltext28                                      text28        00000
__Ltext29                                      text29        00000
__Ltext3                                       text3         00000
__Ltext30                                      text30        00000
__Ltext31                                      text31        00000
__Ltext32                                      text32        00000
__Ltext33                                      text33        00000
__Ltext34                                      text34        00000
__Ltext35                                      text35        00000
__Ltext36                                      text36        00000
__Ltext37                                      text37        00000
__Ltext38                                      text38        00000
__Ltext39                                      text39        00000
__Ltext4                                       text4         00000
__Ltext40                                      text40        00000
__Ltext41                                      text41        00000
__Ltext42                                      text42        00000
__Ltext43                                      text43        00000
__Ltext44                                      text44        00000
__Ltext45                                      text45        00000
__Ltext46                                      text46        00000
__Ltext47                                      text47        00000
__Ltext48                                      text48        00000
__Ltext49                                      text49        00000
__Ltext5                                       text5         00000
__Ltext50                                      text50        00000
__Ltext51                                      text51        00000
__Ltext53                                      text53        00000
__Ltext54                                      text54        00000
__Ltext55                                      text55        00000
__Ltext56                                      text56        00000
__Ltext57                                      text57        00000
__Ltext58                                      text58        00000
__Ltext59                                      text59        00000
__Ltext6                                       text6         00000
__Ltext60                                      text60        00000
__Ltext61                                      text61        00000
__Ltext62                                      text62        00000
__Ltext63                                      text63        00000
__Ltext64                                      text64        00000
__Ltext65                                      text65        00000
__Ltext66                                      text66        00000
__Ltext67                                      text67        00000
__Ltext68                                      text68        00000
__Ltext69                                      text69        00000
__Ltext7                                       text7         00000
__Ltext70                                      text70        00000
__Ltext71                                      text71        00000
__Ltext72                                      text72        00000
__Ltext8                                       text8         00000
__Ltext9                                       text9         00000
__S0                                           (abs)         1871C
__S1                                           (abs)         00AB2
__S4                                           (abs)         00000
___awdiv                                       text41        17D9E
___awdiv@counter                               cstackBANK1   00104
___awdiv@dividend                              cstackBANK1   00100
___awdiv@divisor                               cstackBANK1   00102
___awdiv@quotient                              cstackBANK1   00106
___awdiv@sign                                  cstackBANK1   00105
___fladd                                       text45        12374
___fladd@a                                     cstackBANK1   00104
___fladd@aexp                                  cstackBANK1   0010D
___fladd@b                                     cstackBANK1   00100
___fladd@bexp                                  cstackBANK1   0010E
___fladd@grs                                   cstackBANK1   0010F
___fladd@signs                                 cstackBANK1   0010C
___flmul                                       text47        12CF6
___flmul@a                                     cstackBANK1   00104
___flmul@aexp                                  cstackBANK1   0010D
___flmul@b                                     cstackBANK1   00100
___flmul@bexp                                  cstackBANK1   00112
___flmul@grs                                   cstackBANK1   0010E
___flmul@prod                                  cstackBANK1   00113
___flmul@sign                                  cstackBANK1   0010C
___flmul@temp                                  cstackBANK1   00117
___flneg                                       text46        18594
___flneg@f1                                    cstackBANK1   00100
___flsub                                       text44        184CA
___flsub@a                                     cstackBANK1   00114
___flsub@b                                     cstackBANK1   00110
___fltol                                       text43        17AB0
___fltol@exp1                                  cstackBANK1   00109
___fltol@f1                                    cstackBANK1   00100
___fltol@sign1                                 cstackBANK1   00108
___heap_hi                                     (abs)         00000
___heap_lo                                     (abs)         00000
___inthi_sp                                    stack         00000
___intlo_sp                                    stack         00000
___lmul                                        text29        181D2
___lmul@multiplicand                           cstackBANK1   00104
___lmul@multiplier                             cstackBANK1   00100
___lmul@product                                cstackBANK1   00108
___param_bank                                  (abs)         00000
___rparam_used                                 (abs)         00001
___sp                                          stack         00000
___wmul                                        text40        18632
___wmul@multiplicand                           cstackBANK1   00102
___wmul@multiplier                             cstackBANK1   00100
___wmul@product                                cstackBANK1   00104
___xxtofl                                      text42        1665E
___xxtofl@arg                                  cstackBANK1   0010A
___xxtofl@exp                                  cstackBANK1   00109
___xxtofl@sign                                 cstackBANK1   00108
___xxtofl@val                                  cstackBANK1   00100
__accesstop                                    (abs)         00060
__activetblptr                                 (abs)         00003
__end_of_ConvC                                 mediumconst   0F87D
__end_of_Set_UasrtBauRaite                     text49        18632
__end_of_Timer0_init                           text51        186EC
__end_of_Wait                                  text50        18594
__end_of_Xprintf                               text31        14D46
__end_of___awdiv                               text41        17E64
__end_of___fladd                               text45        12836
__end_of___flmul                               text47        13122
__end_of___flneg                               text46        185CE
__end_of___flsub                               text44        18512
__end_of___fltol                               text43        17BB8
__end_of___lmul                                text29        1823E
__end_of___wmul                                text40        1865A
__end_of___xxtofl                              text42        16816
__end_of__initialization                       cinit         183E0
__end_of_eTaskGetState                         text14        16D06
__end_of_high_isr                              intcode       00472
__end_of_main                                  text0         17282
__end_of_memset                                text6         16E7E
__end_of_my_putchar                            text37        186A0
__end_of_my_putfloat                           text38        1665E
__end_of_my_putint                             text39        17134
__end_of_my_puts                               text36        1834A
__end_of_my_putshex                            text35        140CC
__end_of_my_putshex32                          text34        1763E
__end_of_prvAddNewTaskToReadyList              text7         15A84
__end_of_prvHeapInit                           text23        17D9E
__end_of_prvInitialiseNewTask                  text3         14778
__end_of_prvInitialiseTaskLists                text25        180CE
__end_of_prvInsertBlockIntoFreeList            text22        1649E
__end_of_prvListTasksWithinSingleList          text11        162D8
__end_of_prvResetNextTaskUnblockTime           text18        18480
__end_of_prvSetupTimerInterrupt                text28        17FC0
__end_of_prvTaskCheckFreeStackSpace            text13        18436
__end_of_putch                                 text33        186D4
__end_of_putstring                             text32        18048
__end_of_pvPortMalloc                          text15        15F2C
__end_of_pxPortInitialiseStack                 text5         14A70
__end_of_pxReadyTasksLists_info                text30        13D64
__end_of_taskInfo                              text24        1580C
__end_of_uart_init                             text48        182F6
__end_of_uxTaskGetSystemState                  text10        1750E
__end_of_uxTopUsedPriority                     mediumconst   0F880
__end_of_vListInitialise                       text26        18150
__end_of_vListInitialiseItem                   text4         18716
__end_of_vPortFree                             text9         179A0
__end_of_vPortYield                            text19        17886
__end_of_vTaskGetInfo                          text12        1610E
__end_of_vTaskList                             text8         15CEA
__end_of_vTaskStartScheduler                   text1         17AB0
__end_of_vTaskSuspendAll                       text21        1871C
__end_of_vTaskSwitchContext                    text20        152D6
__end_of_xHeapStructSize                       mediumconst   0F87F
__end_of_xPortStartScheduler                   text27        1829A
__end_of_xTaskCreate                           text2         16FDE
__end_of_xTaskIncrementTick                    text17        111C8
__end_of_xTaskResumeAll                        text16        13974
__end_ofi2_Xprintf                             text56        15016
__end_ofi2___awdiv                             text66        17F28
__end_ofi2___fladd                             text70        12CF6
__end_ofi2___flmul                             text72        1354C
__end_ofi2___flneg                             text71        18606
__end_ofi2___flsub                             text69        18558
__end_ofi2___fltol                             text68        17CBE
__end_ofi2___wmul                              text65        18680
__end_ofi2___xxtofl                            text67        16B80
__end_ofi2_my_putchar                          text62        186BC
__end_ofi2_my_putfloat                         text63        169CC
__end_ofi2_my_putint                           text64        173CA
__end_ofi2_my_puts                             text61        1839C
__end_ofi2_my_putshex                          text60        14432
__end_ofi2_my_putshex32                        text59        17768
__end_ofi2_prvResetNextTaskUnblockTime         text54        184CA
__end_ofi2_putch                               text58        18702
__end_ofi2_putstring                           text57        181D2
__end_ofi2_vTaskSwitchContext                  text55        1558C
__end_ofi2_xTaskIncrementTick                  text53        12374
__initialization                               cinit         1839C
__mediumconst                                  mediumconst   0F86C
__pbssBANK0                                    bssBANK0      0009B
__pbssBANK1                                    bssBANK1      001BB
__pbssBANK2                                    bssBANK2      00200
__pbssBIGRAM                                   bssBIGRAM     002B2
__pbssCOMRAM                                   bssCOMRAM     00057
__pcinit                                       cinit         1839C
__pcstackBANK0                                 cstackBANK0   00060
__pcstackBANK1                                 cstackBANK1   00100
__pcstackBANK2                                 cstackBANK2   0028A
__pcstackCOMRAM                                cstackCOMRAM  00001
__pintcode                                     intcode       00008
__pmediumconst                                 mediumconst   0F86C
__ptext0                                       text0         17134
__ptext1                                       text1         179A0
__ptext10                                      text10        173CA
__ptext11                                      text11        1610E
__ptext12                                      text12        15F2C
__ptext13                                      text13        183EA
__ptext14                                      text14        16B80
__ptext15                                      text15        15CEA
__ptext16                                      text16        1354C
__ptext17                                      text17        10000
__ptext18                                      text18        18436
__ptext19                                      text19        17768
__ptext2                                       text2         16E7E
__ptext20                                      text20        15016
__ptext21                                      text21        18716
__ptext22                                      text22        162D8
__ptext23                                      text23        17CBE
__ptext24                                      text24        1558C
__ptext25                                      text25        18048
__ptext26                                      text26        180CE
__ptext27                                      text27        1823E
__ptext28                                      text28        17F28
__ptext29                                      text29        181D2
__ptext3                                       text3         14432
__ptext30                                      text30        13974
__ptext31                                      text31        14A70
__ptext32                                      text32        17FC0
__ptext33                                      text33        186BC
__ptext34                                      text34        1750E
__ptext35                                      text35        13D64
__ptext36                                      text36        182F6
__ptext37                                      text37        18680
__ptext38                                      text38        1649E
__ptext39                                      text39        16FDE
__ptext4                                       text4         18702
__ptext40                                      text40        18632
__ptext41                                      text41        17D9E
__ptext42                                      text42        1665E
__ptext43                                      text43        17AB0
__ptext44                                      text44        184CA
__ptext45                                      text45        12374
__ptext46                                      text46        18594
__ptext47                                      text47        12CF6
__ptext48                                      text48        1829A
__ptext49                                      text49        18606
__ptext5                                       text5         14778
__ptext50                                      text50        18558
__ptext51                                      text51        186D4
__ptext53                                      text53        111C8
__ptext54                                      text54        18480
__ptext55                                      text55        152D6
__ptext56                                      text56        14D46
__ptext57                                      text57        18150
__ptext58                                      text58        186EC
__ptext59                                      text59        1763E
__ptext6                                       text6         16D06
__ptext60                                      text60        140CC
__ptext61                                      text61        1834A
__ptext62                                      text62        186A0
__ptext63                                      text63        16816
__ptext64                                      text64        17282
__ptext65                                      text65        1865A
__ptext66                                      text66        17E64
__ptext67                                      text67        169CC
__ptext68                                      text68        17BB8
__ptext69                                      text69        18512
__ptext7                                       text7         1580C
__ptext70                                      text70        12836
__ptext71                                      text71        185CE
__ptext72                                      text72        13122
__ptext8                                       text8         15A84
__ptext9                                       text9         17886
__ramtop                                       ramtop        01000
__smallconst                                   smallconst    00000
_eTaskGetState                                 text14        16B80
_high_isr                                      intcode       00008
_isr_cbuf                                      bssBANK2      00200
_isr_cnt                                       bssBANK0      000AF
_main                                          text0         17134
_memset                                        text6         16D06
_my_putchar                                    text37        18680
_my_putfloat                                   text38        1649E
_my_putint                                     text39        16FDE
_my_puts                                       text36        182F6
_my_putshex                                    text35        13D64
_my_putshex32                                  text34        1750E
_printbuf                                      bssBANK2      0020A
_prvAddNewTaskToReadyList                      text7         1580C
_prvHeapInit                                   text23        17CBE
_prvIdleTask                                   (abs)         00000
_prvInitialiseNewTask                          text3         14432
_prvInitialiseTaskLists                        text25        18048
_prvInsertBlockIntoFreeList                    text22        162D8
_prvListTasksWithinSingleList                  text11        1610E
_prvResetNextTaskUnblockTime                   text18        18436
_prvSetupTimerInterrupt                        text28        17F28
_prvTaskCheckFreeStackSpace                    text13        183EA
_putch                                         text33        186BC
_putstring                                     text32        17FC0
_pvPortMalloc                                  text15        15CEA
_pxCurrentTCB                                  bssBANK1      001C3
_pxDelayedTaskList                             bssBANK0      000A9
_pxEnd                                         bssBANK1      001CD
_pxOverflowDelayedTaskList                     bssBANK0      000A7
_pxPortInitialiseStack                         text5         14778
_pxReadyTasksLists                             bssBANK1      001D6
_pxReadyTasksLists_info                        text30        13974
_task001                                       (abs)         00000
_task002                                       (abs)         00000
_taskInfo                                      text24        1558C
_tcb                                           bssBANK0      000A5
_timer_cnt                                     bssBANK0      000AD
_timer_cnt_buf                                 bssBANK0      000AB
_uart_init                                     text48        1829A
_ucHeap                                        bssBIGRAM     002B2
_uxCurrentNumberOfTasks                        bssBANK1      001D5
_uxDeletedTasksWaitingCleanUp                  bssCOMRAM     00059
_uxSchedulerSuspended                          bssBANK1      001CF
_uxTaskGetSystemState                          text10        173CA
_uxTaskNumber                                  bssBANK1      001D0
_uxTopReadyPriority                            bssBANK1      001D4
_uxTopUsedPriority                             mediumconst   0F87F
_vCompeteingIntMathTask                        (abs)         00000
_vListInitialise                               text26        180CE
_vListInitialiseItem                           text4         18702
_vPolledQueueConsumer                          (abs)         00000
_vPolledQueueProducer                          (abs)         00000
_vPortFree                                     text9         17886
_vPortYield                                    text19        17768
_vTaskGetInfo                                  text12        15F2C
_vTaskList                                     text8         15A84
_vTaskStartScheduler                           text1         179A0
_vTaskSuspendAll                               text21        18716
_vTaskSwitchContext                            text20        15016
_xCharsForTx                                   bssBANK1      001BB
_xDelayedTaskList1                             bssBANK0      000CB
_xDelayedTaskList2                             bssBANK0      000C2
_xFreeBytesRemaining                           bssBANK1      001CB
_xIdleTaskHandle                               bssBANK1      001FE
_xMinimumEverFreeBytesRemaining                bssBANK1      001C9
_xNextTaskUnblockTime                          bssBANK1      001BD
_xNumOfOverflows                               bssBANK1      001D1
_xNumberOfSuccessfulAllocations                bssBANK1      001C7
_xNumberOfSuccessfulFrees                      bssBANK1      001C5
_xPendedTicks                                  bssBANK1      001BF
_xPendingReadyList                             bssBANK1      001F1
_xPollingConsumerCount                         bssCOMRAM     0005B
_xPollingProducerCount                         bssCOMRAM     0005A
_xPortStartScheduler                           text27        1823E
_xRxedChars                                    bssCOMRAM     00057
_xSchedulerRunning                             bssBANK1      001D3
_xStart                                        bssBANK1      001FA
_xSuspendedTaskList                            bssBANK0      000B0
_xTaskCheck                                    bssCOMRAM     0005E
_xTaskCreate                                   text2         16E7E
_xTaskIncrementTick                            text17        10000
_xTaskResumeAll                                text16        1354C
_xTasksWaitingTermination                      bssBANK0      000B9
_xTickCount                                    bssBANK1      001C1
_xYieldPending                                 bssBANK1      001D2
btemp                                          temp          0005F
eTaskGetState@eReturn                          cstackBANK1   00156
eTaskGetState@pxDelayedList                    cstackBANK1   00152
eTaskGetState@pxOverflowedDelayedList          cstackBANK1   00154
eTaskGetState@pxStateList                      cstackBANK1   00158
eTaskGetState@pxTCB                            cstackBANK1   0015A
eTaskGetState@x                                cstackBANK1   00157
eTaskGetState@xTask                            cstackBANK1   0014D
end_of_initialization                          cinit         183E0
high_isr@_s                                    cstackCOMRAM  00053
high_isr@_s_753                                cstackCOMRAM  00055
i2Xprintf@Malloc_buf                           cstackCOMRAM  00042
i2Xprintf@ap                                   cstackCOMRAM  00044
i2Xprintf@buffer                               cstackCOMRAM  00046
i2Xprintf@ch                                   cstackCOMRAM  00041
i2Xprintf@charvalue                            cstackCOMRAM  0003D
i2Xprintf@floatvalue                           cstackCOMRAM  00037
i2Xprintf@intvalue                             cstackCOMRAM  0003B
i2Xprintf@string                               cstackCOMRAM  0002D
i2Xprintf@uint32value                          cstackCOMRAM  00033
i2Xprintf@uintvalue                            cstackCOMRAM  0003F
i2_Xprintf                                     text56        14D46
i2___awdiv                                     text66        17E64
i2___awdiv@counter                             cstackCOMRAM  00005
i2___awdiv@dividend                            cstackCOMRAM  00001
i2___awdiv@divisor                             cstackCOMRAM  00003
i2___awdiv@quotient                            cstackCOMRAM  00007
i2___awdiv@sign                                cstackCOMRAM  00006
i2___fladd                                     text70        12836
i2___fladd@a                                   cstackCOMRAM  00005
i2___fladd@aexp                                cstackCOMRAM  0000E
i2___fladd@b                                   cstackCOMRAM  00001
i2___fladd@bexp                                cstackCOMRAM  0000F
i2___fladd@grs                                 cstackCOMRAM  00010
i2___fladd@signs                               cstackCOMRAM  0000D
i2___flmul                                     text72        13122
i2___flmul@a                                   cstackCOMRAM  00005
i2___flmul@aexp                                cstackCOMRAM  00012
i2___flmul@b                                   cstackCOMRAM  00001
i2___flmul@bexp                                cstackCOMRAM  00013
i2___flmul@grs                                 cstackCOMRAM  0000E
i2___flmul@prod                                cstackCOMRAM  00014
i2___flmul@sign                                cstackCOMRAM  0000D
i2___flmul@temp                                cstackCOMRAM  00018
i2___flneg                                     text71        185CE
i2___flneg@f1                                  cstackCOMRAM  00001
i2___flsub                                     text69        18512
i2___flsub@a                                   cstackCOMRAM  00015
i2___flsub@b                                   cstackCOMRAM  00011
i2___fltol                                     text68        17BB8
i2___fltol@exp1                                cstackCOMRAM  0000A
i2___fltol@f1                                  cstackCOMRAM  00001
i2___fltol@sign1                               cstackCOMRAM  00009
i2___wmul                                      text65        1865A
i2___wmul@multiplicand                         cstackCOMRAM  00003
i2___wmul@multiplier                           cstackCOMRAM  00001
i2___wmul@product                              cstackCOMRAM  00005
i2___xxtofl                                    text67        169CC
i2___xxtofl@arg                                cstackCOMRAM  0000B
i2___xxtofl@exp                                cstackCOMRAM  0000A
i2___xxtofl@sign                               cstackCOMRAM  00009
i2___xxtofl@val                                cstackCOMRAM  00001
i2_my_putchar                                  text62        186A0
i2_my_putfloat                                 text63        16816
i2_my_putint                                   text64        17282
i2_my_puts                                     text61        1834A
i2_my_putshex                                  text60        140CC
i2_my_putshex32                                text59        1763E
i2_prvResetNextTaskUnblockTime                 text54        18480
i2_putch                                       text58        186EC
i2_putstring                                   text57        18150
i2_vTaskSwitchContext                          text55        152D6
i2_xTaskIncrementTick                          text53        111C8
i2my_putchar@buf                               cstackCOMRAM  00001
i2my_putchar@c                                 cstackCOMRAM  00003
i2my_putfloat@buf                              cstackCOMRAM  00020
i2my_putfloat@count                            cstackCOMRAM  00023
i2my_putfloat@digit_9240                       cstackCOMRAM  00027
i2my_putfloat@fracPart                         cstackCOMRAM  00029
i2my_putfloat@intPart                          cstackCOMRAM  00025
i2my_putfloat@num                              cstackCOMRAM  0001A
i2my_putfloat@precision                        cstackCOMRAM  0001E
i2my_putint@buf                                cstackCOMRAM  0000B
i2my_putint@keta                               cstackCOMRAM  0000F
i2my_putint@num                                cstackCOMRAM  00009
i2my_putint@temp                               cstackCOMRAM  0000D
i2my_puts@buf                                  cstackCOMRAM  00006
i2my_puts@str                                  cstackCOMRAM  00004
i2my_putshex32@buf                             cstackCOMRAM  00005
i2my_putshex32@dt                              cstackCOMRAM  00001
i2my_putshex32@i                               cstackCOMRAM  00011
i2my_putshex32@sw                              cstackCOMRAM  00010
i2my_putshex@buf                               cstackCOMRAM  00004
i2my_putshex@dt                                cstackCOMRAM  00001
i2my_putshex@flg                               cstackCOMRAM  00003
i2my_putshex@sw                                cstackCOMRAM  00009
i2putch@c                                      cstackCOMRAM  00001
i2putstring@c                                  cstackCOMRAM  00002
i2putstring@i                                  cstackCOMRAM  00006
i2vTaskSwitchContext@_s                        cstackCOMRAM  0004C
i2vTaskSwitchContext@_s_4520                   cstackCOMRAM  0004E
i2vTaskSwitchContext@pxConstList               cstackCOMRAM  00051
i2vTaskSwitchContext@uxTopPriority             cstackCOMRAM  00050
i2xTaskIncrementTick@_s                        cstackBANK0   00065
i2xTaskIncrementTick@_s_4177                   cstackBANK0   00067
i2xTaskIncrementTick@_s_4180                   cstackBANK0   00069
i2xTaskIncrementTick@_s_4226                   cstackBANK0   0006B
i2xTaskIncrementTick@_s_4228                   cstackBANK0   0006D
i2xTaskIncrementTick@_s_4230                   cstackBANK0   0006F
i2xTaskIncrementTick@_s_4232                   cstackBANK0   00071
i2xTaskIncrementTick@_s_4234                   cstackBANK0   00073
i2xTaskIncrementTick@_s_4262                   cstackBANK0   00075
i2xTaskIncrementTick@_s_4338                   cstackBANK0   00077
i2xTaskIncrementTick@_s_4481                   cstackBANK0   00079
i2xTaskIncrementTick@_s_4483                   cstackBANK0   0007B
i2xTaskIncrementTick@_s_4485                   cstackBANK0   0007D
i2xTaskIncrementTick@_s_4487                   cstackBANK0   0007F
i2xTaskIncrementTick@_s_4489                   cstackBANK0   00081
i2xTaskIncrementTick@_s_4491                   cstackBANK0   00083
i2xTaskIncrementTick@pxIndex                   cstackBANK0   00089
i2xTaskIncrementTick@pxList                    cstackBANK0   00085
i2xTaskIncrementTick@pxList_4341               cstackBANK0   00087
i2xTaskIncrementTick@pxTCB                     cstackBANK0   0008D
i2xTaskIncrementTick@pxTemp                    cstackBANK0   00060
i2xTaskIncrementTick@xConstTickCount           cstackBANK0   0008B
i2xTaskIncrementTick@xItemValue                cstackBANK0   00062
i2xTaskIncrementTick@xSwitchRequired           cstackBANK0   00064
int$flags                                      temp          0005F
intlevel0                                      text          00000
intlevel1                                      text          00000
intlevel2                                      text          00000
intlevel3                                      text          00000
isa$std                                        (abs)         00001
isa$xinst                                      (abs)         00000
main@Status                                    cstackBANK2   002B1
memset@c                                       cstackBANK1   00102
memset@dest                                    cstackBANK1   00100
memset@k                                       cstackBANK1   00108
memset@n                                       cstackBANK1   00104
memset@s                                       cstackBANK1   0010A
my_putchar@buf                                 cstackBANK1   00100
my_putchar@c                                   cstackBANK1   00102
my_putfloat@buf                                cstackBANK1   0011F
my_putfloat@count                              cstackBANK1   00122
my_putfloat@digit_9240                         cstackBANK1   00126
my_putfloat@fracPart                           cstackBANK1   00128
my_putfloat@intPart                            cstackBANK1   00124
my_putfloat@num                                cstackBANK1   00119
my_putfloat@precision                          cstackBANK1   0011D
my_putint@buf                                  cstackBANK1   0010A
my_putint@keta                                 cstackBANK1   0010E
my_putint@num                                  cstackBANK1   00108
my_putint@temp                                 cstackBANK1   0010C
my_puts@buf                                    cstackBANK1   00105
my_puts@str                                    cstackBANK1   00103
my_putshex32@buf                               cstackBANK1   00104
my_putshex32@dt                                cstackBANK1   00100
my_putshex32@i                                 cstackBANK1   00110
my_putshex32@sw                                cstackBANK1   0010F
my_putshex@buf                                 cstackBANK1   00103
my_putshex@dt                                  cstackBANK1   00100
my_putshex@flg                                 cstackBANK1   00102
my_putshex@sw                                  cstackBANK1   00108
prvAddNewTaskToReadyList@pxIndex               cstackBANK2   0029D
prvAddNewTaskToReadyList@pxNewTCB              cstackBANK2   00298
prvHeapInit@pucAlignedHeap                     cstackBANK1   00104
prvHeapInit@pxFirstFreeBlock                   cstackBANK1   0010A
prvHeapInit@uxAddress                          cstackBANK1   00106
prvInitialiseNewTask@_s                        cstackBANK1   00165
prvInitialiseNewTask@pcName                    cstackBANK1   00150
prvInitialiseNewTask@pvParameters              cstackBANK1   00156
prvInitialiseNewTask@pxCreatedTask             cstackBANK1   00159
prvInitialiseNewTask@pxNewTCB                  cstackBANK1   0015B
prvInitialiseNewTask@pxTaskCode                cstackBANK1   0014D
prvInitialiseNewTask@pxTopOfStack              cstackBANK1   00163
prvInitialiseNewTask@ulStackDepth              cstackBANK1   00152
prvInitialiseNewTask@uxPriority                cstackBANK1   00158
prvInitialiseNewTask@x                         cstackBANK1   00167
prvInitialiseNewTask@xRegions                  cstackBANK1   0015D
prvInitialiseTaskLists@uxPriority              cstackBANK1   00104
prvInsertBlockIntoFreeList@puc                 cstackBANK1   00108
prvInsertBlockIntoFreeList@pxBlockToInsert     cstackBANK1   00100
prvInsertBlockIntoFreeList@pxIterator          cstackBANK1   0010A
prvListTasksWithinSingleList@eState            cstackBANK1   0019D
prvListTasksWithinSingleList@pxConstList       cstackBANK1   001A7
prvListTasksWithinSingleList@pxConstList_5478  cstackBANK1   001A9
prvListTasksWithinSingleList@pxFirstTCB        cstackBANK1   001A2
prvListTasksWithinSingleList@pxList            cstackBANK1   0019B
prvListTasksWithinSingleList@pxNextTCB         cstackBANK1   001A4
prvListTasksWithinSingleList@pxTaskStatusArray cstackBANK1   00199
prvListTasksWithinSingleList@uxTask            cstackBANK1   001A6
prvSetupTimerInterrupt@ulCompareValue          cstackBANK1   0014D
prvTaskCheckFreeStackSpace@pucStackByte        cstackBANK1   00100
prvTaskCheckFreeStackSpace@ulCount             cstackBANK1   00103
putch@c                                        cstackBANK1   00100
putstring@c                                    cstackBANK1   00101
putstring@i                                    cstackBANK1   00105
pvPortMalloc@pvReturn                          cstackBANK1   00193
pvPortMalloc@pxBlock                           cstackBANK1   00199
pvPortMalloc@pxNewBlockLink                    cstackBANK1   00195
pvPortMalloc@pxPreviousBlock                   cstackBANK1   00197
pvPortMalloc@xWantedSize                       cstackBANK1   0018F
pxPortInitialiseStack@_s                       cstackBANK1   00107
pxPortInitialiseStack@pvParameters             cstackBANK1   00105
pxPortInitialiseStack@pxCode                   cstackBANK1   00102
pxPortInitialiseStack@pxTopOfStack             cstackBANK1   00100
pxPortInitialiseStack@ucBlock                  cstackBANK1   00109
pxPortInitialiseStack@ulAddress                cstackBANK1   0010A
pxReadyTasksLists_info@i                       cstackBANK1   00150
pxReadyTasksLists_info@j                       cstackBANK1   0014F
pxReadyTasksLists_info@xlist                   cstackBANK1   00151
stackhi                                        (abs)         00000
stacklo                                        (abs)         00000
start                                          init          00472
start_initialization                           cinit         1839C
taskInfo@tcb                                   cstackBANK1   0014D
ttemp5                                         temp          00060
ttemp6                                         temp          00063
ttemp7                                         temp          00067
uart_init@dt                                   cstackBANK1   00102
uxTaskGetSystemState@pulTotalRunTime           cstackBANK1   001AE
uxTaskGetSystemState@pxTaskStatusArray         cstackBANK1   001AB
uxTaskGetSystemState@uxArraySize               cstackBANK1   001AD
uxTaskGetSystemState@uxQueue                   cstackBANK1   001B2
uxTaskGetSystemState@uxTask                    cstackBANK1   001B3
vListInitialise@pxList                         cstackBANK1   00100
vListInitialiseItem@pxItem                     cstackBANK1   00100
vPortFree@puc                                  cstackBANK1   00193
vPortFree@pv                                   cstackBANK1   0018F
vPortFree@pxLink                               cstackBANK1   00195
vStartPolledQueueTasks@xPolledQueue            bssCOMRAM     0005C
vTaskGetInfo@eState                            cstackBANK1   00194
vTaskGetInfo@pxTCB                             cstackBANK1   00197
vTaskGetInfo@pxTaskStatus                      cstackBANK1   00191
vTaskGetInfo@xGetFreeStackSpace                cstackBANK1   00193
vTaskGetInfo@xTask                             cstackBANK1   0018F
vTaskList@cStatus                              cstackBANK1   001B7
vTaskList@pcWriteBuffer                        cstackBANK1   001B4
vTaskList@pxTaskStatusArray                    cstackBANK1   001B9
vTaskList@uxArraySize                          cstackBANK1   001B6
vTaskList@x                                    cstackBANK1   001B8
vTaskStartScheduler@xReturn                    cstackBANK2   002B0
vTaskSwitchContext@_s                          cstackBANK1   00151
vTaskSwitchContext@_s_4520                     cstackBANK1   00153
vTaskSwitchContext@pxConstList                 cstackBANK1   00156
vTaskSwitchContext@uxTopPriority               cstackBANK1   00155
wtemp8                                         temp          00060
xTaskCreate@pcName                             cstackBANK2   002A2
xTaskCreate@pvParameters                       cstackBANK2   002A6
xTaskCreate@pxCreatedTask                      cstackBANK2   002A9
xTaskCreate@pxNewTCB                           cstackBANK2   002AE
xTaskCreate@pxTaskCode                         cstackBANK2   0029F
xTaskCreate@usStackDepth                       cstackBANK2   002A4
xTaskCreate@uxPriority                         cstackBANK2   002A8
xTaskCreate@xReturn                            cstackBANK2   002AD
xTaskIncrementTick@_s                          cstackBANK1   00156
xTaskIncrementTick@_s_4177                     cstackBANK1   00158
xTaskIncrementTick@_s_4180                     cstackBANK1   0015A
xTaskIncrementTick@_s_4226                     cstackBANK1   0015C
xTaskIncrementTick@_s_4228                     cstackBANK1   0015E
xTaskIncrementTick@_s_4230                     cstackBANK1   00160
xTaskIncrementTick@_s_4232                     cstackBANK1   00162
xTaskIncrementTick@_s_4234                     cstackBANK1   00164
xTaskIncrementTick@_s_4262                     cstackBANK1   00166
xTaskIncrementTick@_s_4338                     cstackBANK1   00168
xTaskIncrementTick@_s_4481                     cstackBANK1   0016A
xTaskIncrementTick@_s_4483                     cstackBANK1   0016C
xTaskIncrementTick@_s_4485                     cstackBANK1   0016E
xTaskIncrementTick@_s_4487                     cstackBANK1   00170
xTaskIncrementTick@_s_4489                     cstackBANK1   00172
xTaskIncrementTick@_s_4491                     cstackBANK1   00174
xTaskIncrementTick@pxIndex                     cstackBANK1   0017A
xTaskIncrementTick@pxList                      cstackBANK1   00176
xTaskIncrementTick@pxList_4341                 cstackBANK1   00178
xTaskIncrementTick@pxTCB                       cstackBANK1   0017E
xTaskIncrementTick@pxTemp                      cstackBANK1   00151
xTaskIncrementTick@xConstTickCount             cstackBANK1   0017C
xTaskIncrementTick@xItemValue                  cstackBANK1   00153
xTaskIncrementTick@xSwitchRequired             cstackBANK1   00155
xTaskResumeAll@pxIndex                         cstackBANK1   0018B
xTaskResumeAll@pxList                          cstackBANK1   00187
xTaskResumeAll@pxList_3969                     cstackBANK1   00189
xTaskResumeAll@pxTCB                           cstackBANK1   0018D
xTaskResumeAll@xAlreadyYielded                 cstackBANK1   00184
xTaskResumeAll@xPendedCounts                   cstackBANK1   00185


MODULE INFORMATION

Module		Function		Class		Link	Load	Size
C:\Program Files\Microchip\xc8\v2.41\pic\sources\c99\common\Umul32.c
		___lmul        		CODE           	181D2	0000	108

C:\Program Files\Microchip\xc8\v2.41\pic\sources\c99\common\Umul32.c estimated size: 108

Source/FreeRTOS/MemMang/heap_4.c
		_vPortFree     		CODE           	17886	0000	282
		_pvPortMalloc  		CODE           	15CEA	0000	578
		_prvHeapInit   		CODE           	17CBE	0000	224
		_prvInsertBlockIntoFreeList		CODE           	162D8	0000	454

Source/FreeRTOS/MemMang/heap_4.c estimated size: 1538

C:\Program Files\Microchip\xc8\v2.41\pic\sources\c99\common\fltol.c
		___fltol       		CODE           	17AB0	0000	264

C:\Program Files\Microchip\xc8\v2.41\pic\sources\c99\common\fltol.c estimated size: 264

C:\Program Files\Microchip\xc8\v2.41\pic\sources\c99\common\xxtofl.c
		___xxtofl      		CODE           	1665E	0000	440

C:\Program Files\Microchip\xc8\v2.41\pic\sources\c99\common\xxtofl.c estimated size: 440

C:\Program Files\Microchip\xc8\v2.41\pic\sources\c99\common\memset.c
		_memset        		CODE           	16D06	0000	376

C:\Program Files\Microchip\xc8\v2.41\pic\sources\c99\common\memset.c estimated size: 376

Source/main1.c
		_Timer0_init   		CODE           	186D4	0000	24
		_main          		CODE           	17134	0000	334
		_Wait          		CODE           	18558	0000	60

Source/main1.c estimated size: 418

C:\Program Files\Microchip\xc8\v2.41\pic\sources\c99\common\sprcadd.c
		___flsub       		CODE           	184CA	0000	72
		___fladd       		CODE           	12374	0000	1218

C:\Program Files\Microchip\xc8\v2.41\pic\sources\c99\common\sprcadd.c estimated size: 1290

C:\Program Files\Microchip\xc8\v2.41\pic\sources\c99\common\awdiv.c
		___awdiv       		CODE           	17D9E	0000	198

C:\Program Files\Microchip\xc8\v2.41\pic\sources\c99\common\awdiv.c estimated size: 198

C:\Program Files\Microchip\xc8\v2.41\pic\sources\c99\common\flneg.c
		___flneg       		CODE           	18594	0000	58

C:\Program Files\Microchip\xc8\v2.41\pic\sources\c99\common\flneg.c estimated size: 58

shared
		i2_putch       		CODE           	186EC	0000	22
		i2_my_puts     		CODE           	1834A	0000	82
		_uxTopUsedPriority		MEDIUMCONST    	F87F	0000	1
		i2_my_putint   		CODE           	17282	0000	328
		i2_my_putchar  		CODE           	186A0	0000	28
		i2_my_putshex  		CODE           	140CC	0000	870
		i2_my_putfloat 		CODE           	16816	0000	438
		i2_my_putshex32		CODE           	1763E	0000	298
		i2___flneg     		CODE           	185CE	0000	56
		i2___awdiv     		CODE           	17E64	0000	196
		i2___fladd     		CODE           	12836	0000	1216
		i2___wmul      		CODE           	1865A	0000	38
		i2___fltol     		CODE           	17BB8	0000	262
		__initialization		CODE           	1839C	0000	68
		i2_prvResetNextTaskUnblockTime		CODE           	18480	0000	74
		i2_vTaskSwitchContext		CODE           	152D6	0000	694
		i2_Xprintf     		CODE           	14D46	0000	720
		_ConvC         		MEDIUMCONST    	F86D	0000	16
		i2___flmul     		CODE           	13122	0000	1066
		i2___xxtofl    		CODE           	169CC	0000	436
		i2_xTaskIncrementTick		CODE           	111C8	0000	4524
		i2___flsub     		CODE           	18512	0000	70
		_xHeapStructSize		MEDIUMCONST    	0000	0000	0
		i2_putstring   		CODE           	18150	0000	130

shared estimated size: 11633

C:\Program Files\Microchip\xc8\v2.41\pic\sources\c99\common\Umul16.c
		___wmul        		CODE           	18632	0000	40

C:\Program Files\Microchip\xc8\v2.41\pic\sources\c99\common\Umul16.c estimated size: 40

Source/uart_main.c
		_putstring     		CODE           	17FC0	0000	136
		_putch         		CODE           	186BC	0000	24
		_Xprintf       		CODE           	14A70	0000	726
		_uart_init     		CODE           	1829A	0000	92
		_Set_UasrtBauRaite		CODE           	18606	0000	44
		_my_puts       		CODE           	182F6	0000	84
		_my_putchar    		CODE           	18680	0000	32
		_my_putshex    		CODE           	13D64	0000	872
		_my_putshex32  		CODE           	1750E	0000	304
		_my_putfloat   		CODE           	1649E	0000	448
		_my_putint     		CODE           	16FDE	0000	342

Source/uart_main.c estimated size: 3104

Source/FreeRTOS/list.c
		_vListInitialiseItem		CODE           	18702	0000	20
		_vListInitialise		CODE           	180CE	0000	130

Source/FreeRTOS/list.c estimated size: 150

Source/FreeRTOS/tasks.c
		_prvTaskCheckFreeStackSpace		CODE           	183EA	0000	76
		_taskInfo      		CODE           	1558C	0000	640
		_xTaskCreate   		CODE           	16E7E	0000	352
		_vTaskSuspendAll		CODE           	18716	0000	6
		_prvInitialiseNewTask		CODE           	14432	0000	838
		_uxTaskGetSystemState		CODE           	173CA	0000	324
		_vTaskStartScheduler		CODE           	179A0	0000	272
		_eTaskGetState 		CODE           	16B80	0000	390
		_pxReadyTasksLists_info		CODE           	13974	0000	1008
		_vTaskGetInfo  		CODE           	15F2C	0000	482
		_xTaskResumeAll		CODE           	1354C	0000	1064
		_prvListTasksWithinSingleList		CODE           	1610E	0000	458
		_prvInitialiseTaskLists		CODE           	18048	0000	134
		_prvAddNewTaskToReadyList		CODE           	1580C	0000	632
		_xTaskIncrementTick		CODE           	10000	0000	4552
		_vTaskSwitchContext		CODE           	15016	0000	704
		_prvResetNextTaskUnblockTime		CODE           	18436	0000	74
		_vTaskList     		CODE           	15A84	0000	614

Source/FreeRTOS/tasks.c estimated size: 12620

Source/FreeRTOS/portable/PIC18F/port.c
		_pxPortInitialiseStack		CODE           	14778	0000	760
		_xPortStartScheduler		CODE           	1823E	0000	92
		_high_isr      		CODE           	0008	0000	1130
		_vPortYield    		CODE           	17768	0000	286
		_prvSetupTimerInterrupt		CODE           	17F28	0000	152

Source/FreeRTOS/portable/PIC18F/port.c estimated size: 2420

C:\Program Files\Microchip\xc8\v2.41\pic\sources\c99\common\sprcmul.c
		___flmul       		CODE           	12CF6	0000	1068

C:\Program Files\Microchip\xc8\v2.41\pic\sources\c99\common\sprcmul.c estimated size: 1068

